target datalayout = "e-m:e-p270:32:32-p271:32:32-p272:64:64-i64:64-i128:128-f80:128-n8:16:32:64-S128"
target triple = "x86_64-pc-linux-gnu"

%struct.ws_manuf = type { [5 x i8], i8, ptr, ptr }
%struct.ws_manuf_iter = type { i64, i64, i64, %struct.ws_manuf, %struct.ws_manuf, %struct.ws_manuf }
%class.ManufTableModel = type { %class.QAbstractTableModel, %class.QList }
%class.QAbstractTableModel = type { %class.QAbstractItemModel }
%class.QAbstractItemModel = type { %class.QObject }
%class.QObject = type { ptr, %class.QScopedPointer }
%class.QScopedPointer = type { ptr }
%class.QList = type { %struct.QArrayDataPointer.1 }
%struct.QArrayDataPointer.1 = type { ptr, ptr, i64 }

@_ZTV15ManufTableModel = external unnamed_addr constant { [51 x ptr] }, align 8
@_ZN14ManufTableItemC1EP8ws_manuf = unnamed_addr alias void (ptr, ptr), ptr @_ZN14ManufTableItemC2EP8ws_manuf

; Function Attrs: mustprogress nounwind uwtable
define linkonce_odr noundef ptr @_ZN17QArrayDataPointerIP14ManufTableItemE4dataEv(ptr noundef nonnull align 8 dereferenceable(24) %0) #1 comdat align 2 {
  %2 = alloca ptr, align 8
  store ptr %0, ptr %2, align 8
  %3 = load ptr, ptr %2, align 8
  %4 = getelementptr inbounds %struct.QArrayDataPointer.1, ptr %3, i32 0, i32 1
  %5 = load ptr, ptr %4, align 8
  ret ptr %5
}

; Function Attrs: mustprogress nounwind uwtable
define linkonce_odr noundef ptr @_ZN17QArrayDataPointerIP14ManufTableItemE3endEv(ptr noundef nonnull align 8 dereferenceable(24) %0) #1 comdat align 2 {
  %2 = alloca ptr, align 8
  store ptr %0, ptr %2, align 8
  %3 = load ptr, ptr %2, align 8
  %4 = call noundef ptr @_ZN17QArrayDataPointerIP14ManufTableItemE4dataEv(ptr noundef nonnull align 8 dereferenceable(24) %3) #12
  %5 = getelementptr inbounds %struct.QArrayDataPointer.1, ptr %3, i32 0, i32 2
  %6 = load i64, ptr %5, align 8
  %7 = getelementptr ptr, ptr %4, i64 %6
  ret ptr %7
}

; Function Attrs: mustprogress nounwind uwtable
define linkonce_odr noundef ptr @_ZN17QArrayDataPointerIP14ManufTableItemEptEv(ptr noundef nonnull align 8 dereferenceable(24) %0) #1 comdat align 2 {
  %2 = alloca ptr, align 8
  store ptr %0, ptr %2, align 8
  %3 = load ptr, ptr %2, align 8
  ret ptr %3
}

; Function Attrs: mustprogress uwtable
define linkonce_odr noundef nonnull align 8 dereferenceable(8) ptr @_ZN5QListIP14ManufTableItemE11emplaceBackIJRS1_EEES4_DpOT_(ptr noundef nonnull align 8 dereferenceable(24) %0, ptr noundef nonnull align 8 dereferenceable(8) %1) #0 comdat align 2 {
  %3 = alloca ptr, align 8
  %4 = alloca ptr, align 8
  store ptr %0, ptr %3, align 8
  store ptr %1, ptr %4, align 8
  %5 = load ptr, ptr %3, align 8
  %6 = getelementptr inbounds %class.QList, ptr %5, i32 0, i32 0
  %7 = call noundef ptr @_ZN17QArrayDataPointerIP14ManufTableItemEptEv(ptr noundef nonnull align 8 dereferenceable(24) %6) #12
  %8 = getelementptr inbounds %class.QList, ptr %5, i32 0, i32 0
  %9 = call noundef ptr @_ZN17QArrayDataPointerIP14ManufTableItemEptEv(ptr noundef nonnull align 8 dereferenceable(24) %8) #12
  %10 = getelementptr inbounds %struct.QArrayDataPointer.1, ptr %9, i32 0, i32 2
  %11 = load i64, ptr %10, align 8
  %12 = load ptr, ptr %4, align 8
  call void @_ZN9QtPrivate12QPodArrayOpsIP14ManufTableItemE7emplaceIJRS2_EEEvxDpOT_(ptr noundef nonnull align 8 dereferenceable(24) %7, i64 noundef %11, ptr noundef nonnull align 8 dereferenceable(8) %12)
  %13 = getelementptr inbounds %class.QList, ptr %5, i32 0, i32 0
  %14 = call noundef ptr @_ZN17QArrayDataPointerIP14ManufTableItemE3endEv(ptr noundef nonnull align 8 dereferenceable(24) %13) #12
  %15 = getelementptr ptr, ptr %14, i64 -1
  ret ptr %15
}

; Function Attrs: mustprogress nounwind uwtable
define linkonce_odr void @_ZN17QArrayDataPointerIP14ManufTableItemEC2Ev(ptr noundef nonnull align 8 dereferenceable(24) %0) unnamed_addr #1 comdat align 2 {
  %2 = alloca ptr, align 8
  store ptr %0, ptr %2, align 8
  %3 = load ptr, ptr %2, align 8
  %4 = getelementptr inbounds %struct.QArrayDataPointer.1, ptr %3, i32 0, i32 0
  store ptr null, ptr %4, align 8
  %5 = getelementptr inbounds %struct.QArrayDataPointer.1, ptr %3, i32 0, i32 1
  store ptr null, ptr %5, align 8
  %6 = getelementptr inbounds %struct.QArrayDataPointer.1, ptr %3, i32 0, i32 2
  store i64 0, ptr %6, align 8
  ret void
}

; Function Attrs: mustprogress uwtable
define linkonce_odr void @_ZN5QListIP14ManufTableItemE6appendES1_(ptr noundef nonnull align 8 dereferenceable(24) %0, ptr noundef %1) #0 comdat align 2 {
  %3 = alloca ptr, align 8
  %4 = alloca ptr, align 8
  store ptr %0, ptr %3, align 8
  store ptr %1, ptr %4, align 8
  %5 = load ptr, ptr %3, align 8
  %6 = call noundef nonnull align 8 dereferenceable(8) ptr @_ZN5QListIP14ManufTableItemE11emplaceBackIJRS1_EEES4_DpOT_(ptr noundef nonnull align 8 dereferenceable(24) %5, ptr noundef nonnull align 8 dereferenceable(8) %4)
  ret void
}

; Function Attrs: mustprogress nounwind uwtable
define linkonce_odr void @_ZN5QListIP14ManufTableItemEC2Ev(ptr noundef nonnull align 8 dereferenceable(24) %0) unnamed_addr #1 comdat align 2 {
  %2 = alloca ptr, align 8
  store ptr %0, ptr %2, align 8
  %3 = load ptr, ptr %2, align 8
  %4 = getelementptr inbounds %class.QList, ptr %3, i32 0, i32 0
  call void @_ZN17QArrayDataPointerIP14ManufTableItemEC2Ev(ptr noundef nonnull align 8 dereferenceable(24) %4) #12
  ret void
}

; Function Attrs: mustprogress uwtable
define void @_ZN15ManufTableModelC2EP7QObject(ptr noundef nonnull align 8 dereferenceable(40) %0, ptr noundef %1) unnamed_addr #0 align 2 personality ptr @__gxx_personality_v0 {
  %3 = alloca ptr, align 8
  %4 = alloca ptr, align 8
  %5 = alloca %struct.ws_manuf_iter, align 8
  %6 = alloca %struct.ws_manuf, align 8
  %7 = alloca ptr, align 8
  %8 = alloca i32, align 4
  store ptr %0, ptr %3, align 8
  store ptr %1, ptr %4, align 8
  %9 = load ptr, ptr %3, align 8
  %10 = load ptr, ptr %4, align 8
  call void @_ZN19QAbstractTableModelC2EP7QObject(ptr noundef nonnull align 8 dereferenceable(16) %9, ptr noundef %10)
  store ptr getelementptr inbounds ({ [51 x ptr] }, ptr @_ZTV15ManufTableModel, i32 0, i32 0, i32 2), ptr %9, align 8
  %11 = getelementptr inbounds %class.ManufTableModel, ptr %9, i32 0, i32 1
  call void @_ZN5QListIP14ManufTableItemEC2Ev(ptr noundef nonnull align 8 dereferenceable(24) %11) #12
  invoke void @ws_manuf_iter_init(ptr noundef %5)
          to label %12 unwind label %22

12:                                               ; preds = %2
  br label %13

13:                                               ; preds = %21, %12
  %14 = invoke zeroext i1 @ws_manuf_iter_next(ptr noundef %5, ptr noundef %6)
          to label %15 unwind label %22

15:                                               ; preds = %13
  br i1 %14, label %16, label %30

16:                                               ; preds = %15
  %17 = getelementptr inbounds %class.ManufTableModel, ptr %9, i32 0, i32 1
  %18 = invoke noalias noundef nonnull ptr @_Znwm(i64 noundef 96) #15
          to label %19 unwind label %22

19:                                               ; preds = %16
  invoke void @_ZN14ManufTableItemC1EP8ws_manuf(ptr noundef nonnull align 8 dereferenceable(96) %18, ptr noundef %6)
          to label %20 unwind label %26

20:                                               ; preds = %19
  invoke void @_ZN5QListIP14ManufTableItemE6appendES1_(ptr noundef nonnull align 8 dereferenceable(24) %17, ptr noundef %18)
          to label %21 unwind label %22

21:                                               ; preds = %20
  br label %13, !llvm.loop !4

22:                                               ; preds = %20, %16, %13, %2
  %23 = landingpad { ptr, i32 }
          cleanup
  %24 = extractvalue { ptr, i32 } %23, 0
  store ptr %24, ptr %7, align 8
  %25 = extractvalue { ptr, i32 } %23, 1
  store i32 %25, ptr %8, align 4
  br label %31

26:                                               ; preds = %19
  %27 = landingpad { ptr, i32 }
          cleanup
  %28 = extractvalue { ptr, i32 } %27, 0
  store ptr %28, ptr %7, align 8
  %29 = extractvalue { ptr, i32 } %27, 1
  store i32 %29, ptr %8, align 4
  call void @_ZdlPv(ptr noundef %18) #16
  br label %31

30:                                               ; preds = %15
  ret void

31:                                               ; preds = %26, %22
  call void @_ZN5QListIP14ManufTableItemED2Ev(ptr noundef nonnull align 8 dereferenceable(24) %11) #12
  call void @_ZN19QAbstractTableModelD2Ev(ptr noundef nonnull align 8 dereferenceable(16) %9) #12
  br label %32

32:                                               ; preds = %31
  %33 = load ptr, ptr %7, align 8
  %34 = load i32, ptr %8, align 4
  %35 = insertvalue { ptr, i32 } poison, ptr %33, 0
  %36 = insertvalue { ptr, i32 } %35, i32 %34, 1
  resume { ptr, i32 } %36
}