; Function Attrs: mustprogress uwtable
define void @_ZN15ManufTableModelC2EP7QObject(ptr noundef nonnull align 8 dereferenceable(40) %0, ptr noundef %1) unnamed_addr #0 align 2 personality ptr @__gxx_personality_v0 {
  %3 = alloca ptr, align 8
  %4 = alloca %struct.ws_manuf_iter, align 8
  %5 = alloca %struct.ws_manuf, align 8
  tail call void @_ZN19QAbstractTableModelC2EP7QObject(ptr noundef nonnull align 8 dereferenceable(16) %0, ptr noundef %1)
  store ptr getelementptr inbounds ({ [51 x ptr] }, ptr @_ZTV15ManufTableModel, i64 0, i32 0, i64 2), ptr %0, align 8
  %6 = getelementptr inbounds i8, ptr %0, i64 16
  tail call void @llvm.memset.p0.i64(ptr noundef nonnull align 8 dereferenceable(24) %6, i8 0, i64 24, i1 false)
  invoke void @ws_manuf_iter_init(ptr noundef nonnull %4)
          to label %.preheader unwind label %.loopexit.split-lp

.preheader:                                       ; preds = %2
  %7 = getelementptr inbounds i8, ptr %0, i64 32
  br label %8

8:                                                ; preds = %.preheader, %_ZN5QListIP14ManufTableItemE6appendES1_.exit
  %9 = invoke zeroext i1 @ws_manuf_iter_next(ptr noundef nonnull %4, ptr noundef nonnull %5)
          to label %10 unwind label %.loopexit

10:                                               ; preds = %8
  br i1 %9, label %11, label %18

11:                                               ; preds = %10
  %12 = invoke noalias noundef nonnull dereferenceable(96) ptr @_Znwm(i64 noundef 96) #21
          to label %13 unwind label %.loopexit

13:                                               ; preds = %11
  invoke void @_ZN14ManufTableItemC1EP8ws_manuf(ptr noundef nonnull align 8 dereferenceable(96) %12, ptr noundef nonnull %5)
          to label %14 unwind label %16

14:                                               ; preds = %13
  call void @llvm.lifetime.start.p0(i64 8, ptr nonnull %3)
  store ptr %12, ptr %3, align 8
  %15 = load i64, ptr %7, align 8
  invoke void @_ZN9QtPrivate12QPodArrayOpsIP14ManufTableItemE7emplaceIJRS2_EEEvxDpOT_(ptr noundef nonnull align 8 dereferenceable(24) %6, i64 noundef %15, ptr noundef nonnull align 8 dereferenceable(8) %3)
          to label %_ZN5QListIP14ManufTableItemE6appendES1_.exit unwind label %.loopexit

_ZN5QListIP14ManufTableItemE6appendES1_.exit:     ; preds = %14
  call void @llvm.lifetime.end.p0(i64 8, ptr nonnull %3)
  br label %8

.loopexit:                                        ; preds = %8, %11, %14
  %lpad.loopexit = landingpad { ptr, i32 }
          cleanup
  br label %19

.loopexit.split-lp:                               ; preds = %2
  %lpad.loopexit.split-lp = landingpad { ptr, i32 }
          cleanup
  br label %19

16:                                               ; preds = %13
  %17 = landingpad { ptr, i32 }
          cleanup
  call void @_ZdlPv(ptr noundef nonnull %12) #22
  br label %19

18:                                               ; preds = %10
  ret void

19:                                               ; preds = %.loopexit, %.loopexit.split-lp, %16
  %.pn = phi { ptr, i32 } [ %17, %16 ], [ %lpad.loopexit, %.loopexit ], [ %lpad.loopexit.split-lp, %.loopexit.split-lp ]
  call void @_ZN5QListIP14ManufTableItemED2Ev(ptr noundef nonnull align 8 dereferenceable(24) %6) #19
  call void @_ZN19QAbstractTableModelD2Ev(ptr noundef nonnull align 8 dereferenceable(16) %0) #19
  resume { ptr, i32 } %.pn
}